target datalayout = "e-m:e-p270:32:32-p271:32:32-p272:64:64-i64:64-i128:128-f80:128-n8:16:32:64-S128"
target triple = "x86_64-pc-linux-gnu"

; Function Attrs: nounwind uwtable
define internal void @avg_no_rnd_vc1_chroma_mc4_c(ptr noundef %0, ptr noundef %1, i64 noundef %2, i32 noundef %3, i32 noundef %4, i32 noundef %5) #1 {
  %7 = alloca ptr, align 8
  %8 = alloca ptr, align 8
  %9 = alloca i64, align 8
  %10 = alloca i32, align 4
  %11 = alloca i32, align 4
  %12 = alloca i32, align 4
  %13 = alloca i32, align 4
  %14 = alloca i32, align 4
  %15 = alloca i32, align 4
  %16 = alloca i32, align 4
  %17 = alloca i32, align 4
  store ptr %0, ptr %7, align 8, !tbaa !45
  store ptr %1, ptr %8, align 8, !tbaa !45
  store i64 %2, ptr %9, align 8, !tbaa !47
  store i32 %3, ptr %10, align 4, !tbaa !38
  store i32 %4, ptr %11, align 4, !tbaa !38
  store i32 %5, ptr %12, align 4, !tbaa !38
  call void @llvm.lifetime.start.p0(i64 4, ptr %13) #7
  %18 = load i32, ptr %11, align 4, !tbaa !38
  %19 = sub nsw i32 8, %18
  %20 = load i32, ptr %12, align 4, !tbaa !38
  %21 = sub nsw i32 8, %20
  %22 = mul nsw i32 %19, %21
  store i32 %22, ptr %13, align 4, !tbaa !38
  call void @llvm.lifetime.start.p0(i64 4, ptr %14) #7
  %23 = load i32, ptr %11, align 4, !tbaa !38
  %24 = load i32, ptr %12, align 4, !tbaa !38
  %25 = sub nsw i32 8, %24
  %26 = mul nsw i32 %23, %25
  store i32 %26, ptr %14, align 4, !tbaa !38
  call void @llvm.lifetime.start.p0(i64 4, ptr %15) #7
  %27 = load i32, ptr %11, align 4, !tbaa !38
  %28 = sub nsw i32 8, %27
  %29 = load i32, ptr %12, align 4, !tbaa !38
  %30 = mul nsw i32 %28, %29
  store i32 %30, ptr %15, align 4, !tbaa !38
  call void @llvm.lifetime.start.p0(i64 4, ptr %16) #7
  %31 = load i32, ptr %11, align 4, !tbaa !38
  %32 = load i32, ptr %12, align 4, !tbaa !38
  %33 = mul nsw i32 %31, %32
  store i32 %33, ptr %16, align 4, !tbaa !38
  call void @llvm.lifetime.start.p0(i64 4, ptr %17) #7
  store i32 0, ptr %17, align 4, !tbaa !38
  br label %34

34:                                               ; preds = %225, %6
  %35 = load i32, ptr %17, align 4, !tbaa !38
  %36 = load i32, ptr %10, align 4, !tbaa !38
  %37 = icmp slt i32 %35, %36
  br i1 %37, label %38, label %228

38:                                               ; preds = %34
  %39 = load ptr, ptr %7, align 8, !tbaa !45
  %40 = getelementptr inbounds i8, ptr %39, i64 0
  %41 = load i8, ptr %40, align 1, !tbaa !50
  %42 = zext i8 %41 to i32
  %43 = load i32, ptr %13, align 4, !tbaa !38
  %44 = load ptr, ptr %8, align 8, !tbaa !45
  %45 = getelementptr inbounds i8, ptr %44, i64 0
  %46 = load i8, ptr %45, align 1, !tbaa !50
  %47 = zext i8 %46 to i32
  %48 = mul nsw i32 %43, %47
  %49 = load i32, ptr %14, align 4, !tbaa !38
  %50 = load ptr, ptr %8, align 8, !tbaa !45
  %51 = getelementptr inbounds i8, ptr %50, i64 1
  %52 = load i8, ptr %51, align 1, !tbaa !50
  %53 = zext i8 %52 to i32
  %54 = mul nsw i32 %49, %53
  %55 = add nsw i32 %48, %54
  %56 = load i32, ptr %15, align 4, !tbaa !38
  %57 = load ptr, ptr %8, align 8, !tbaa !45
  %58 = load i64, ptr %9, align 8, !tbaa !47
  %59 = add nsw i64 %58, 0
  %60 = getelementptr inbounds i8, ptr %57, i64 %59
  %61 = load i8, ptr %60, align 1, !tbaa !50
  %62 = zext i8 %61 to i32
  %63 = mul nsw i32 %56, %62
  %64 = add nsw i32 %55, %63
  %65 = load i32, ptr %16, align 4, !tbaa !38
  %66 = load ptr, ptr %8, align 8, !tbaa !45
  %67 = load i64, ptr %9, align 8, !tbaa !47
  %68 = add nsw i64 %67, 0
  %69 = add nsw i64 %68, 1
  %70 = getelementptr inbounds i8, ptr %66, i64 %69
  %71 = load i8, ptr %70, align 1, !tbaa !50
  %72 = zext i8 %71 to i32
  %73 = mul nsw i32 %65, %72
  %74 = add nsw i32 %64, %73
  %75 = add nsw i32 %74, 32
  %76 = sub nsw i32 %75, 4
  %77 = ashr i32 %76, 6
  %78 = add nsw i32 %42, %77
  %79 = add nsw i32 %78, 1
  %80 = ashr i32 %79, 1
  %81 = trunc i32 %80 to i8
  %82 = load ptr, ptr %7, align 8, !tbaa !45
  %83 = getelementptr inbounds i8, ptr %82, i64 0
  store i8 %81, ptr %83, align 1, !tbaa !50
  %84 = load ptr, ptr %7, align 8, !tbaa !45
  %85 = getelementptr inbounds i8, ptr %84, i64 1
  %86 = load i8, ptr %85, align 1, !tbaa !50
  %87 = zext i8 %86 to i32
  %88 = load i32, ptr %13, align 4, !tbaa !38
  %89 = load ptr, ptr %8, align 8, !tbaa !45
  %90 = getelementptr inbounds i8, ptr %89, i64 1
  %91 = load i8, ptr %90, align 1, !tbaa !50
  %92 = zext i8 %91 to i32
  %93 = mul nsw i32 %88, %92
  %94 = load i32, ptr %14, align 4, !tbaa !38
  %95 = load ptr, ptr %8, align 8, !tbaa !45
  %96 = getelementptr inbounds i8, ptr %95, i64 2
  %97 = load i8, ptr %96, align 1, !tbaa !50
  %98 = zext i8 %97 to i32
  %99 = mul nsw i32 %94, %98
  %100 = add nsw i32 %93, %99
  %101 = load i32, ptr %15, align 4, !tbaa !38
  %102 = load ptr, ptr %8, align 8, !tbaa !45
  %103 = load i64, ptr %9, align 8, !tbaa !47
  %104 = add nsw i64 %103, 1
  %105 = getelementptr inbounds i8, ptr %102, i64 %104
  %106 = load i8, ptr %105, align 1, !tbaa !50
  %107 = zext i8 %106 to i32
  %108 = mul nsw i32 %101, %107
  %109 = add nsw i32 %100, %108
  %110 = load i32, ptr %16, align 4, !tbaa !38
  %111 = load ptr, ptr %8, align 8, !tbaa !45
  %112 = load i64, ptr %9, align 8, !tbaa !47
  %113 = add nsw i64 %112, 1
  %114 = add nsw i64 %113, 1
  %115 = getelementptr inbounds i8, ptr %111, i64 %114
  %116 = load i8, ptr %115, align 1, !tbaa !50
  %117 = zext i8 %116 to i32
  %118 = mul nsw i32 %110, %117
  %119 = add nsw i32 %109, %118
  %120 = add nsw i32 %119, 32
  %121 = sub nsw i32 %120, 4
  %122 = ashr i32 %121, 6
  %123 = add nsw i32 %87, %122
  %124 = add nsw i32 %123, 1
  %125 = ashr i32 %124, 1
  %126 = trunc i32 %125 to i8
  %127 = load ptr, ptr %7, align 8, !tbaa !45
  %128 = getelementptr inbounds i8, ptr %127, i64 1
  store i8 %126, ptr %128, align 1, !tbaa !50
  %129 = load ptr, ptr %7, align 8, !tbaa !45
  %130 = getelementptr inbounds i8, ptr %129, i64 2
  %131 = load i8, ptr %130, align 1, !tbaa !50
  %132 = zext i8 %131 to i32
  %133 = load i32, ptr %13, align 4, !tbaa !38
  %134 = load ptr, ptr %8, align 8, !tbaa !45
  %135 = getelementptr inbounds i8, ptr %134, i64 2
  %136 = load i8, ptr %135, align 1, !tbaa !50
  %137 = zext i8 %136 to i32
  %138 = mul nsw i32 %133, %137
  %139 = load i32, ptr %14, align 4, !tbaa !38
  %140 = load ptr, ptr %8, align 8, !tbaa !45
  %141 = getelementptr inbounds i8, ptr %140, i64 3
  %142 = load i8, ptr %141, align 1, !tbaa !50
  %143 = zext i8 %142 to i32
  %144 = mul nsw i32 %139, %143
  %145 = add nsw i32 %138, %144
  %146 = load i32, ptr %15, align 4, !tbaa !38
  %147 = load ptr, ptr %8, align 8, !tbaa !45
  %148 = load i64, ptr %9, align 8, !tbaa !47
  %149 = add nsw i64 %148, 2
  %150 = getelementptr inbounds i8, ptr %147, i64 %149
  %151 = load i8, ptr %150, align 1, !tbaa !50
  %152 = zext i8 %151 to i32
  %153 = mul nsw i32 %146, %152
  %154 = add nsw i32 %145, %153
  %155 = load i32, ptr %16, align 4, !tbaa !38
  %156 = load ptr, ptr %8, align 8, !tbaa !45
  %157 = load i64, ptr %9, align 8, !tbaa !47
  %158 = add nsw i64 %157, 2
  %159 = add nsw i64 %158, 1
  %160 = getelementptr inbounds i8, ptr %156, i64 %159
  %161 = load i8, ptr %160, align 1, !tbaa !50
  %162 = zext i8 %161 to i32
  %163 = mul nsw i32 %155, %162
  %164 = add nsw i32 %154, %163
  %165 = add nsw i32 %164, 32
  %166 = sub nsw i32 %165, 4
  %167 = ashr i32 %166, 6
  %168 = add nsw i32 %132, %167
  %169 = add nsw i32 %168, 1
  %170 = ashr i32 %169, 1
  %171 = trunc i32 %170 to i8
  %172 = load ptr, ptr %7, align 8, !tbaa !45
  %173 = getelementptr inbounds i8, ptr %172, i64 2
  store i8 %171, ptr %173, align 1, !tbaa !50
  %174 = load ptr, ptr %7, align 8, !tbaa !45
  %175 = getelementptr inbounds i8, ptr %174, i64 3
  %176 = load i8, ptr %175, align 1, !tbaa !50
  %177 = zext i8 %176 to i32
  %178 = load i32, ptr %13, align 4, !tbaa !38
  %179 = load ptr, ptr %8, align 8, !tbaa !45
  %180 = getelementptr inbounds i8, ptr %179, i64 3
  %181 = load i8, ptr %180, align 1, !tbaa !50
  %182 = zext i8 %181 to i32
  %183 = mul nsw i32 %178, %182
  %184 = load i32, ptr %14, align 4, !tbaa !38
  %185 = load ptr, ptr %8, align 8, !tbaa !45
  %186 = getelementptr inbounds i8, ptr %185, i64 4
  %187 = load i8, ptr %186, align 1, !tbaa !50
  %188 = zext i8 %187 to i32
  %189 = mul nsw i32 %184, %188
  %190 = add nsw i32 %183, %189
  %191 = load i32, ptr %15, align 4, !tbaa !38
  %192 = load ptr, ptr %8, align 8, !tbaa !45
  %193 = load i64, ptr %9, align 8, !tbaa !47
  %194 = add nsw i64 %193, 3
  %195 = getelementptr inbounds i8, ptr %192, i64 %194
  %196 = load i8, ptr %195, align 1, !tbaa !50
  %197 = zext i8 %196 to i32
  %198 = mul nsw i32 %191, %197
  %199 = add nsw i32 %190, %198
  %200 = load i32, ptr %16, align 4, !tbaa !38
  %201 = load ptr, ptr %8, align 8, !tbaa !45
  %202 = load i64, ptr %9, align 8, !tbaa !47
  %203 = add nsw i64 %202, 3
  %204 = add nsw i64 %203, 1
  %205 = getelementptr inbounds i8, ptr %201, i64 %204
  %206 = load i8, ptr %205, align 1, !tbaa !50
  %207 = zext i8 %206 to i32
  %208 = mul nsw i32 %200, %207
  %209 = add nsw i32 %199, %208
  %210 = add nsw i32 %209, 32
  %211 = sub nsw i32 %210, 4
  %212 = ashr i32 %211, 6
  %213 = add nsw i32 %177, %212
  %214 = add nsw i32 %213, 1
  %215 = ashr i32 %214, 1
  %216 = trunc i32 %215 to i8
  %217 = load ptr, ptr %7, align 8, !tbaa !45
  %218 = getelementptr inbounds i8, ptr %217, i64 3
  store i8 %216, ptr %218, align 1, !tbaa !50
  %219 = load i64, ptr %9, align 8, !tbaa !47
  %220 = load ptr, ptr %7, align 8, !tbaa !45
  %221 = getelementptr inbounds i8, ptr %220, i64 %219
  store ptr %221, ptr %7, align 8, !tbaa !45
  %222 = load i64, ptr %9, align 8, !tbaa !47
  %223 = load ptr, ptr %8, align 8, !tbaa !45
  %224 = getelementptr inbounds i8, ptr %223, i64 %222
  store ptr %224, ptr %8, align 8, !tbaa !45
  br label %225

225:                                              ; preds = %38
  %226 = load i32, ptr %17, align 4, !tbaa !38
  %227 = add nsw i32 %226, 1
  store i32 %227, ptr %17, align 4, !tbaa !38
  br label %34, !llvm.loop !71

228:                                              ; preds = %34
  call void @llvm.lifetime.end.p0(i64 4, ptr %17) #7
  call void @llvm.lifetime.end.p0(i64 4, ptr %16) #7
  call void @llvm.lifetime.end.p0(i64 4, ptr %15) #7
  call void @llvm.lifetime.end.p0(i64 4, ptr %14) #7
  call void @llvm.lifetime.end.p0(i64 4, ptr %13) #7
  ret void
}