; Function Attrs: nofree norecurse nosync nounwind memory(argmem: readwrite) uwtable
define internal void @avg_no_rnd_vc1_chroma_mc4_c(ptr noundef captures(none) %0, ptr noundef readonly captures(none) %1, i64 noundef %2, i32 noundef %3, i32 noundef %4, i32 noundef %5) #1 {
  %7 = sub nsw i32 8, %4
  %8 = sub nsw i32 8, %5
  %9 = mul nsw i32 %8, %7
  %10 = mul nsw i32 %8, %4
  %11 = mul nsw i32 %7, %5
  %12 = mul nsw i32 %5, %4
  %13 = icmp sgt i32 %3, 0
  br i1 %13, label %.lr.ph.lver.check, label %._crit_edge

.lr.ph.lver.check:                                ; preds = %6
  %ident.check.not = icmp eq i64 %2, 1
  br i1 %ident.check.not, label %.lr.ph.ph, label %.lr.ph.lver.orig

.lr.ph.lver.orig:                                 ; preds = %.lr.ph.lver.check, %.lr.ph.lver.orig
  %.066.lver.orig = phi i32 [ %119, %.lr.ph.lver.orig ], [ 0, %.lr.ph.lver.check ]
  %.06265.lver.orig = phi ptr [ %118, %.lr.ph.lver.orig ], [ %0, %.lr.ph.lver.check ]
  %.06364.lver.orig = phi ptr [ %23, %.lr.ph.lver.orig ], [ %1, %.lr.ph.lver.check ]
  %14 = load i8, ptr %.06265.lver.orig, align 1, !tbaa !40
  %15 = zext i8 %14 to i32
  %16 = load i8, ptr %.06364.lver.orig, align 1, !tbaa !40
  %17 = zext i8 %16 to i32
  %18 = mul nsw i32 %9, %17
  %19 = getelementptr inbounds nuw i8, ptr %.06364.lver.orig, i64 1
  %20 = load i8, ptr %19, align 1, !tbaa !40
  %21 = zext i8 %20 to i32
  %22 = mul nsw i32 %10, %21
  %23 = getelementptr inbounds i8, ptr %.06364.lver.orig, i64 %2
  %24 = load i8, ptr %23, align 1, !tbaa !40
  %25 = zext i8 %24 to i32
  %26 = mul nsw i32 %11, %25
  %27 = getelementptr i8, ptr %23, i64 1
  %28 = load i8, ptr %27, align 1, !tbaa !40
  %29 = zext i8 %28 to i32
  %30 = mul nsw i32 %12, %29
  %31 = add i32 %18, 28
  %32 = add i32 %31, %22
  %33 = add i32 %32, %26
  %34 = add i32 %33, %30
  %35 = lshr i32 %34, 6
  %36 = add nuw nsw i32 %15, 1
  %37 = add nuw nsw i32 %36, %35
  %38 = lshr i32 %37, 1
  %39 = trunc i32 %38 to i8
  store i8 %39, ptr %.06265.lver.orig, align 1, !tbaa !40
  %40 = getelementptr inbounds nuw i8, ptr %.06265.lver.orig, i64 1
  %41 = load i8, ptr %40, align 1, !tbaa !40
  %42 = zext i8 %41 to i32
  %43 = load i8, ptr %19, align 1, !tbaa !40
  %44 = zext i8 %43 to i32
  %45 = mul nsw i32 %9, %44
  %46 = getelementptr inbounds nuw i8, ptr %.06364.lver.orig, i64 2
  %47 = load i8, ptr %46, align 1, !tbaa !40
  %48 = zext i8 %47 to i32
  %49 = mul nsw i32 %10, %48
  %50 = load i8, ptr %27, align 1, !tbaa !40
  %51 = zext i8 %50 to i32
  %52 = mul nsw i32 %11, %51
  %53 = getelementptr i8, ptr %23, i64 2
  %54 = load i8, ptr %53, align 1, !tbaa !40
  %55 = zext i8 %54 to i32
  %56 = mul nsw i32 %12, %55
  %57 = add i32 %45, 28
  %58 = add i32 %57, %49
  %59 = add i32 %58, %52
  %60 = add i32 %59, %56
  %61 = lshr i32 %60, 6
  %62 = add nuw nsw i32 %42, 1
  %63 = add nuw nsw i32 %62, %61
  %64 = lshr i32 %63, 1
  %65 = trunc i32 %64 to i8
  store i8 %65, ptr %40, align 1, !tbaa !40
  %66 = getelementptr inbounds nuw i8, ptr %.06265.lver.orig, i64 2
  %67 = load i8, ptr %66, align 1, !tbaa !40
  %68 = zext i8 %67 to i32
  %69 = load i8, ptr %46, align 1, !tbaa !40
  %70 = zext i8 %69 to i32
  %71 = mul nsw i32 %9, %70
  %72 = getelementptr inbounds nuw i8, ptr %.06364.lver.orig, i64 3
  %73 = load i8, ptr %72, align 1, !tbaa !40
  %74 = zext i8 %73 to i32
  %75 = mul nsw i32 %10, %74
  %76 = load i8, ptr %53, align 1, !tbaa !40
  %77 = zext i8 %76 to i32
  %78 = mul nsw i32 %11, %77
  %79 = getelementptr i8, ptr %23, i64 3
  %80 = load i8, ptr %79, align 1, !tbaa !40
  %81 = zext i8 %80 to i32
  %82 = mul nsw i32 %12, %81
  %83 = add i32 %71, 28
  %84 = add i32 %83, %75
  %85 = add i32 %84, %78
  %86 = add i32 %85, %82
  %87 = lshr i32 %86, 6
  %88 = add nuw nsw i32 %68, 1
  %89 = add nuw nsw i32 %88, %87
  %90 = lshr i32 %89, 1
  %91 = trunc i32 %90 to i8
  store i8 %91, ptr %66, align 1, !tbaa !40
  %92 = getelementptr inbounds nuw i8, ptr %.06265.lver.orig, i64 3
  %93 = load i8, ptr %92, align 1, !tbaa !40
  %94 = zext i8 %93 to i32
  %95 = load i8, ptr %72, align 1, !tbaa !40
  %96 = zext i8 %95 to i32
  %97 = mul nsw i32 %9, %96
  %98 = getelementptr inbounds nuw i8, ptr %.06364.lver.orig, i64 4
  %99 = load i8, ptr %98, align 1, !tbaa !40
  %100 = zext i8 %99 to i32
  %101 = mul nsw i32 %10, %100
  %102 = load i8, ptr %79, align 1, !tbaa !40
  %103 = zext i8 %102 to i32
  %104 = mul nsw i32 %11, %103
  %105 = getelementptr i8, ptr %23, i64 4
  %106 = load i8, ptr %105, align 1, !tbaa !40
  %107 = zext i8 %106 to i32
  %108 = mul nsw i32 %12, %107
  %109 = add i32 %97, 28
  %110 = add i32 %109, %101
  %111 = add i32 %110, %104
  %112 = add i32 %111, %108
  %113 = lshr i32 %112, 6
  %114 = add nuw nsw i32 %94, 1
  %115 = add nuw nsw i32 %114, %113
  %116 = lshr i32 %115, 1
  %117 = trunc i32 %116 to i8
  store i8 %117, ptr %92, align 1, !tbaa !40
  %118 = getelementptr inbounds i8, ptr %.06265.lver.orig, i64 %2
  %119 = add nuw nsw i32 %.066.lver.orig, 1
  %exitcond.not.lver.orig = icmp eq i32 %119, %3
  br i1 %exitcond.not.lver.orig, label %._crit_edge, label %.lr.ph.lver.orig, !llvm.loop !95

.lr.ph.ph:                                        ; preds = %.lr.ph.lver.check
  %scevgep = getelementptr i8, ptr %0, i64 2
  %load_initial = load i8, ptr %scevgep, align 1
  br label %.lr.ph

.lr.ph:                                           ; preds = %.lr.ph.ph, %.lr.ph
  %store_forwarded = phi i8 [ %load_initial, %.lr.ph.ph ], [ %222, %.lr.ph ]
  %.066 = phi i32 [ 0, %.lr.ph.ph ], [ %224, %.lr.ph ]
  %.06265 = phi ptr [ %0, %.lr.ph.ph ], [ %223, %.lr.ph ]
  %.06364 = phi ptr [ %1, %.lr.ph.ph ], [ %129, %.lr.ph ]
  %120 = load i8, ptr %.06265, align 1, !tbaa !40
  %121 = zext i8 %120 to i32
  %122 = load i8, ptr %.06364, align 1, !tbaa !40
  %123 = zext i8 %122 to i32
  %124 = mul nsw i32 %9, %123
  %125 = getelementptr inbounds nuw i8, ptr %.06364, i64 1
  %126 = load i8, ptr %125, align 1, !tbaa !40
  %127 = zext i8 %126 to i32
  %128 = mul nsw i32 %10, %127
  %129 = getelementptr inbounds nuw i8, ptr %.06364, i64 %2
  %130 = load i8, ptr %129, align 1, !tbaa !40
  %131 = zext i8 %130 to i32
  %132 = mul nsw i32 %11, %131
  %133 = getelementptr i8, ptr %129, i64 1
  %134 = load i8, ptr %133, align 1, !tbaa !40
  %135 = zext i8 %134 to i32
  %136 = mul nsw i32 %12, %135
  %137 = add i32 %124, 28
  %138 = add i32 %137, %128
  %139 = add i32 %138, %132
  %140 = add i32 %139, %136
  %141 = lshr i32 %140, 6
  %142 = add nuw nsw i32 %121, 1
  %143 = add nuw nsw i32 %142, %141
  %144 = lshr i32 %143, 1
  %145 = trunc i32 %144 to i8
  store i8 %145, ptr %.06265, align 1, !tbaa !40
  %146 = getelementptr inbounds nuw i8, ptr %.06265, i64 1
  %147 = load i8, ptr %146, align 1, !tbaa !40
  %148 = zext i8 %147 to i32
  %149 = load i8, ptr %125, align 1, !tbaa !40
  %150 = zext i8 %149 to i32
  %151 = mul nsw i32 %9, %150
  %152 = getelementptr inbounds nuw i8, ptr %.06364, i64 2
  %153 = load i8, ptr %152, align 1, !tbaa !40
  %154 = zext i8 %153 to i32
  %155 = mul nsw i32 %10, %154
  %156 = load i8, ptr %133, align 1, !tbaa !40
  %157 = zext i8 %156 to i32
  %158 = mul nsw i32 %11, %157
  %159 = getelementptr i8, ptr %129, i64 2
  %160 = load i8, ptr %159, align 1, !tbaa !40
  %161 = zext i8 %160 to i32
  %162 = mul nsw i32 %12, %161
  %163 = add i32 %151, 28
  %164 = add i32 %163, %155
  %165 = add i32 %164, %158
  %166 = add i32 %165, %162
  %167 = lshr i32 %166, 6
  %168 = add nuw nsw i32 %148, 1
  %169 = add nuw nsw i32 %168, %167
  %170 = lshr i32 %169, 1
  %171 = trunc i32 %170 to i8
  store i8 %171, ptr %146, align 1, !tbaa !40
  %172 = getelementptr inbounds nuw i8, ptr %.06265, i64 2
  %173 = zext i8 %store_forwarded to i32
  %174 = load i8, ptr %152, align 1, !tbaa !40
  %175 = zext i8 %174 to i32
  %176 = mul nsw i32 %9, %175
  %177 = getelementptr inbounds nuw i8, ptr %.06364, i64 3
  %178 = load i8, ptr %177, align 1, !tbaa !40
  %179 = zext i8 %178 to i32
  %180 = mul nsw i32 %10, %179
  %181 = load i8, ptr %159, align 1, !tbaa !40
  %182 = zext i8 %181 to i32
  %183 = mul nsw i32 %11, %182
  %184 = getelementptr i8, ptr %129, i64 3
  %185 = load i8, ptr %184, align 1, !tbaa !40
  %186 = zext i8 %185 to i32
  %187 = mul nsw i32 %12, %186
  %188 = add i32 %176, 28
  %189 = add i32 %188, %180
  %190 = add i32 %189, %183
  %191 = add i32 %190, %187
  %192 = lshr i32 %191, 6
  %193 = add nuw nsw i32 %173, 1
  %194 = add nuw nsw i32 %193, %192
  %195 = lshr i32 %194, 1
  %196 = trunc i32 %195 to i8
  store i8 %196, ptr %172, align 1, !tbaa !40
  %197 = getelementptr inbounds nuw i8, ptr %.06265, i64 3
  %198 = load i8, ptr %197, align 1, !tbaa !40
  %199 = zext i8 %198 to i32
  %200 = load i8, ptr %177, align 1, !tbaa !40
  %201 = zext i8 %200 to i32
  %202 = mul nsw i32 %9, %201
  %203 = getelementptr inbounds nuw i8, ptr %.06364, i64 4
  %204 = load i8, ptr %203, align 1, !tbaa !40
  %205 = zext i8 %204 to i32
  %206 = mul nsw i32 %10, %205
  %207 = load i8, ptr %184, align 1, !tbaa !40
  %208 = zext i8 %207 to i32
  %209 = mul nsw i32 %11, %208
  %210 = getelementptr i8, ptr %129, i64 4
  %211 = load i8, ptr %210, align 1, !tbaa !40
  %212 = zext i8 %211 to i32
  %213 = mul nsw i32 %12, %212
  %214 = add i32 %202, 28
  %215 = add i32 %214, %206
  %216 = add i32 %215, %209
  %217 = add i32 %216, %213
  %218 = lshr i32 %217, 6
  %219 = add nuw nsw i32 %199, 1
  %220 = add nuw nsw i32 %219, %218
  %221 = lshr i32 %220, 1
  %222 = trunc i32 %221 to i8
  store i8 %222, ptr %197, align 1, !tbaa !40
  %223 = getelementptr inbounds nuw i8, ptr %.06265, i64 %2
  %224 = add nuw nsw i32 %.066, 1
  %exitcond.not = icmp eq i32 %224, %3
  br i1 %exitcond.not, label %._crit_edge, label %.lr.ph, !llvm.loop !95

._crit_edge:                                      ; preds = %.lr.ph.lver.orig, %.lr.ph, %6
  ret void
}